; ModuleID = 'source-C-CXX/30/66.c'
source_filename = "source-C-CXX/30/66.c"
target datalayout = "e-m:e-p270:32:32-p271:32:32-p272:64:64-i64:64-f80:128-n8:16:32:64-S128"
target triple = "x86_64-pc-linux-gnu"

%struct.student = type { [1000 x i8], %struct.student* }

@.str = private unnamed_addr constant [4 x i8] c"end\00", align 1

; Function Attrs: nounwind sspstrong uwtable
define dso_local %struct.student* @create() local_unnamed_addr #0 {
  %1 = tail call noalias align 16 dereferenceable_or_null(100) i8* @malloc(i64 100) #6
  %2 = bitcast i8* %1 to %struct.student*
  %3 = getelementptr inbounds %struct.student, %struct.student* %2, i64 0, i32 0, i64 0
  %4 = tail call i32 (i8*, ...) bitcast (i32 (...)* @gets to i32 (i8*, ...)*)(i8* %3) #6
  %5 = getelementptr inbounds %struct.student, %struct.student* %2, i64 0, i32 1
  store %struct.student* null, %struct.student** %5, align 8, !tbaa !5
  %6 = tail call i32 @strcmp(i8* noundef nonnull dereferenceable(1) %3, i8* noundef nonnull dereferenceable(4) getelementptr inbounds ([4 x i8], [4 x i8]* @.str, i64 0, i64 0)) #7
  %7 = icmp eq i32 %6, 0
  br i1 %7, label %18, label %8

8:                                                ; preds = %0, %8
  %9 = phi %struct.student* [ %10, %8 ], [ %2, %0 ]
  %10 = phi %struct.student* [ %13, %8 ], [ %2, %0 ]
  %11 = getelementptr inbounds %struct.student, %struct.student* %10, i64 0, i32 1
  store %struct.student* %9, %struct.student** %11, align 8, !tbaa !5
  %12 = tail call noalias align 16 dereferenceable_or_null(100) i8* @malloc(i64 100) #6
  %13 = bitcast i8* %12 to %struct.student*
  %14 = getelementptr inbounds %struct.student, %struct.student* %13, i64 0, i32 0, i64 0
  %15 = tail call i32 (i8*, ...) bitcast (i32 (...)* @gets to i32 (i8*, ...)*)(i8* %14) #6
  %16 = tail call i32 @strcmp(i8* noundef nonnull dereferenceable(1) %14, i8* noundef nonnull dereferenceable(4) getelementptr inbounds ([4 x i8], [4 x i8]* @.str, i64 0, i64 0)) #7
  %17 = icmp eq i32 %16, 0
  br i1 %17, label %18, label %8, !llvm.loop !10

18:                                               ; preds = %8, %0
  %19 = phi %struct.student* [ %2, %0 ], [ %10, %8 ]
  store %struct.student* null, %struct.student** %5, align 8, !tbaa !5
  ret %struct.student* %19
}

; Function Attrs: inaccessiblememonly mustprogress nofree nounwind willreturn
declare noalias noundef align 16 i8* @malloc(i64 noundef) local_unnamed_addr #1

declare i32 @gets(...) local_unnamed_addr #2

; Function Attrs: argmemonly mustprogress nofree nounwind readonly willreturn
declare i32 @strcmp(i8* nocapture, i8* nocapture) local_unnamed_addr #3

; Function Attrs: nofree nounwind sspstrong uwtable
define dso_local void @print(%struct.student* readonly %0) local_unnamed_addr #4 {
  %2 = icmp eq %struct.student* %0, null
  br i1 %2, label %10, label %3

3:                                                ; preds = %1, %3
  %4 = phi %struct.student* [ %8, %3 ], [ %0, %1 ]
  %5 = getelementptr inbounds %struct.student, %struct.student* %4, i64 0, i32 0, i64 0
  %6 = tail call i32 @puts(i8* nonnull dereferenceable(1) %5)
  %7 = getelementptr inbounds %struct.student, %struct.student* %4, i64 0, i32 1
  %8 = load %struct.student*, %struct.student** %7, align 8, !tbaa !5
  %9 = icmp eq %struct.student* %8, null
  br i1 %9, label %10, label %3, !llvm.loop !12

10:                                               ; preds = %3, %1
  ret void
}

; Function Attrs: nofree nounwind
declare noundef i32 @puts(i8* nocapture noundef readonly) local_unnamed_addr #5

; Function Attrs: nounwind sspstrong uwtable
define dso_local void @main() local_unnamed_addr #0 {
  %1 = tail call noalias align 16 dereferenceable_or_null(100) i8* @malloc(i64 100) #6
  %2 = bitcast i8* %1 to %struct.student*
  %3 = getelementptr inbounds %struct.student, %struct.student* %2, i64 0, i32 0, i64 0
  %4 = tail call i32 (i8*, ...) bitcast (i32 (...)* @gets to i32 (i8*, ...)*)(i8* %3) #6
  %5 = getelementptr inbounds %struct.student, %struct.student* %2, i64 0, i32 1
  store %struct.student* null, %struct.student** %5, align 8, !tbaa !5
  %6 = tail call i32 @strcmp(i8* noundef nonnull dereferenceable(1) %3, i8* noundef nonnull dereferenceable(4) getelementptr inbounds ([4 x i8], [4 x i8]* @.str, i64 0, i64 0)) #7
  %7 = icmp eq i32 %6, 0
  br i1 %7, label %18, label %8

8:                                                ; preds = %0, %8
  %9 = phi %struct.student* [ %10, %8 ], [ %2, %0 ]
  %10 = phi %struct.student* [ %13, %8 ], [ %2, %0 ]
  %11 = getelementptr inbounds %struct.student, %struct.student* %10, i64 0, i32 1
  store %struct.student* %9, %struct.student** %11, align 8, !tbaa !5
  %12 = tail call noalias align 16 dereferenceable_or_null(100) i8* @malloc(i64 100) #6
  %13 = bitcast i8* %12 to %struct.student*
  %14 = getelementptr inbounds %struct.student, %struct.student* %13, i64 0, i32 0, i64 0
  %15 = tail call i32 (i8*, ...) bitcast (i32 (...)* @gets to i32 (i8*, ...)*)(i8* %14) #6
  %16 = tail call i32 @strcmp(i8* noundef nonnull dereferenceable(1) %14, i8* noundef nonnull dereferenceable(4) getelementptr inbounds ([4 x i8], [4 x i8]* @.str, i64 0, i64 0)) #7
  %17 = icmp eq i32 %16, 0
  br i1 %17, label %18, label %8, !llvm.loop !10

18:                                               ; preds = %8, %0
  %19 = phi %struct.student* [ %2, %0 ], [ %10, %8 ]
  store %struct.student* null, %struct.student** %5, align 8, !tbaa !5
  br label %20

20:                                               ; preds = %18, %20
  %21 = phi %struct.student* [ %25, %20 ], [ %19, %18 ]
  %22 = getelementptr inbounds %struct.student, %struct.student* %21, i64 0, i32 0, i64 0
  %23 = tail call i32 @puts(i8* nonnull dereferenceable(1) %22) #6
  %24 = getelementptr inbounds %struct.student, %struct.student* %21, i64 0, i32 1
  %25 = load %struct.student*, %struct.student** %24, align 8, !tbaa !5
  %26 = icmp eq %struct.student* %25, null
  br i1 %26, label %27, label %20, !llvm.loop !12

27:                                               ; preds = %20
  ret void
}


!llvm.module.flags = !{!0, !1, !2, !3}
!llvm.ident = !{!4}

!0 = !{i32 1, !"wchar_size", i32 4}
!1 = !{i32 7, !"PIC Level", i32 2}
!2 = !{i32 7, !"PIE Level", i32 2}
!3 = !{i32 7, !"uwtable", i32 1}
!4 = !{!"clang version 13.0.0"}
!5 = !{!6, !9, i64 1000}
!6 = !{!"student", !7, i64 0, !9, i64 1000}
!7 = !{!"omnipotent char", !8, i64 0}
!8 = !{!"Simple C/C++ TBAA"}
!9 = !{!"any pointer", !7, i64 0}
!10 = distinct !{!10, !11}
!11 = !{!"llvm.loop.mustprogress"}
!12 = distinct !{!12, !11}
